target datalayout = "e-m:e-p270:32:32-p271:32:32-p272:64:64-i64:64-i128:128-f80:128-n8:16:32:64-S128"
target triple = "x86_64-pc-linux-gnu"

%struct.Gia_Man_t_ = type { ptr, ptr, i32, i32, i32, i32, ptr, ptr, i32, i32, i32, ptr, ptr, %struct.Vec_Int_t_, %struct.Vec_Int_t_, i32, i32, i32, %struct.Vec_Int_t_, ptr, ptr, ptr, i32, i32, i32, i32, ptr, ptr, ptr, ptr, ptr, i32, i32, ptr, i32, ptr, ptr, ptr, ptr, ptr, ptr, ptr, ptr, ptr, ptr, ptr, ptr, ptr, ptr, ptr, ptr, ptr, ptr, %struct.Vec_Int_t_, %struct.Vec_Int_t_, ptr, ptr, ptr, ptr, ptr, ptr, ptr, ptr, ptr, ptr, ptr, ptr, ptr, ptr, ptr, ptr, ptr, ptr, ptr, ptr, ptr, i32, float, float, ptr, ptr, i32, ptr, ptr, ptr, ptr, ptr, ptr, ptr, ptr, ptr, ptr, ptr, ptr, ptr, ptr, ptr, i64, i64, ptr, ptr, i32, i32, i32, i32, i32, i32, i32, i32, i32, i32, i32, i32, ptr, ptr, ptr, ptr, ptr, ptr, ptr, ptr, i32, i32, i32, ptr, i32, i32, ptr, ptr, ptr, ptr, ptr, ptr, i32, i32, ptr, %struct.Vec_Int_t_, %struct.Vec_Int_t_, %struct.Vec_Int_t_, ptr, ptr, ptr, i32, i32, i32, i32, ptr, ptr, ptr, ptr, ptr }
%struct.Vec_Int_t_ = type { i32, i32, ptr }
%struct.Gia_Obj_t_ = type <{ i64, i32 }>

@s_Truths6 = internal global [6 x i64] [i64 -6148914691236517206, i64 -3689348814741910324, i64 -1085102592571150096, i64 -71777214294589696, i64 -281470681808896, i64 -4294967296], align 16

; Function Attrs: inlinehint nounwind uwtable
define internal i32 @Gia_ObjIsAnd(ptr noundef %0) #2 {
  %2 = alloca ptr, align 8
  store ptr %0, ptr %2, align 8, !tbaa !10
  %3 = load ptr, ptr %2, align 8, !tbaa !10
  %4 = load i64, ptr %3, align 4
  %5 = lshr i64 %4, 31
  %6 = and i64 %5, 1
  %7 = trunc i64 %6 to i32
  %8 = icmp ne i32 %7, 0
  br i1 %8, label %15, label %9

9:                                                ; preds = %1
  %10 = load ptr, ptr %2, align 8, !tbaa !10
  %11 = load i64, ptr %10, align 4
  %12 = and i64 %11, 536870911
  %13 = trunc i64 %12 to i32
  %14 = icmp ne i32 %13, 536870911
  br label %15

15:                                               ; preds = %9, %1
  %16 = phi i1 [ false, %1 ], [ %14, %9 ]
  %17 = zext i1 %16 to i32
  ret i32 %17
}

; Function Attrs: inlinehint nounwind uwtable
define internal i32 @Gia_ObjIsXor(ptr noundef %0) #2 {
  %2 = alloca ptr, align 8
  store ptr %0, ptr %2, align 8, !tbaa !10
  %3 = load ptr, ptr %2, align 8, !tbaa !10
  %4 = call i32 @Gia_ObjIsAnd(ptr noundef %3)
  %5 = icmp ne i32 %4, 0
  br i1 %5, label %6, label %17

6:                                                ; preds = %1
  %7 = load ptr, ptr %2, align 8, !tbaa !10
  %8 = load i64, ptr %7, align 4
  %9 = and i64 %8, 536870911
  %10 = trunc i64 %9 to i32
  %11 = load ptr, ptr %2, align 8, !tbaa !10
  %12 = load i64, ptr %11, align 4
  %13 = lshr i64 %12, 32
  %14 = and i64 %13, 536870911
  %15 = trunc i64 %14 to i32
  %16 = icmp slt i32 %10, %15
  br label %17

17:                                               ; preds = %6, %1
  %18 = phi i1 [ false, %1 ], [ %16, %6 ]
  %19 = zext i1 %18 to i32
  ret i32 %19
}

; Function Attrs: inlinehint nounwind uwtable
define internal i32 @Gia_ObjFaninC1(ptr noundef %0) #2 {
  %2 = alloca ptr, align 8
  store ptr %0, ptr %2, align 8, !tbaa !10
  %3 = load ptr, ptr %2, align 8, !tbaa !10
  %4 = load i64, ptr %3, align 4
  %5 = lshr i64 %4, 61
  %6 = and i64 %5, 1
  %7 = trunc i64 %6 to i32
  ret i32 %7
}

; Function Attrs: inlinehint nounwind uwtable
define internal i32 @Gia_ObjFaninC0(ptr noundef %0) #2 {
  %2 = alloca ptr, align 8
  store ptr %0, ptr %2, align 8, !tbaa !10
  %3 = load ptr, ptr %2, align 8, !tbaa !10
  %4 = load i64, ptr %3, align 4
  %5 = lshr i64 %4, 29
  %6 = and i64 %5, 1
  %7 = trunc i64 %6 to i32
  ret i32 %7
}

; Function Attrs: inlinehint nounwind uwtable
define internal i32 @Gia_ObjFaninId1(ptr noundef %0, i32 noundef %1) #2 {
  %3 = alloca ptr, align 8
  %4 = alloca i32, align 4
  store ptr %0, ptr %3, align 8, !tbaa !10
  store i32 %1, ptr %4, align 4, !tbaa !8
  %5 = load i32, ptr %4, align 4, !tbaa !8
  %6 = load ptr, ptr %3, align 8, !tbaa !10
  %7 = load i64, ptr %6, align 4
  %8 = lshr i64 %7, 32
  %9 = and i64 %8, 536870911
  %10 = trunc i64 %9 to i32
  %11 = sub nsw i32 %5, %10
  ret i32 %11
}

; Function Attrs: inlinehint nounwind uwtable
define internal i32 @Gia_ObjFaninId0(ptr noundef %0, i32 noundef %1) #2 {
  %3 = alloca ptr, align 8
  %4 = alloca i32, align 4
  store ptr %0, ptr %3, align 8, !tbaa !10
  store i32 %1, ptr %4, align 4, !tbaa !8
  %5 = load i32, ptr %4, align 4, !tbaa !8
  %6 = load ptr, ptr %3, align 8, !tbaa !10
  %7 = load i64, ptr %6, align 4
  %8 = and i64 %7, 536870911
  %9 = trunc i64 %8 to i32
  %10 = sub nsw i32 %5, %9
  ret i32 %10
}

; Function Attrs: inlinehint nounwind uwtable
define internal i32 @Vec_IntEntry(ptr noundef %0, i32 noundef %1) #2 {
  %3 = alloca ptr, align 8
  %4 = alloca i32, align 4
  store ptr %0, ptr %3, align 8, !tbaa !32
  store i32 %1, ptr %4, align 4, !tbaa !8
  %5 = load ptr, ptr %3, align 8, !tbaa !32
  %6 = getelementptr inbounds nuw %struct.Vec_Int_t_, ptr %5, i32 0, i32 2
  %7 = load ptr, ptr %6, align 8, !tbaa !33
  %8 = load i32, ptr %4, align 4, !tbaa !8
  %9 = sext i32 %8 to i64
  %10 = getelementptr inbounds i32, ptr %7, i64 %9
  %11 = load i32, ptr %10, align 4, !tbaa !8
  ret i32 %11
}

; Function Attrs: inlinehint nounwind uwtable
define internal i32 @Gia_ObjCioId(ptr noundef %0) #2 {
  %2 = alloca ptr, align 8
  store ptr %0, ptr %2, align 8, !tbaa !10
  %3 = load ptr, ptr %2, align 8, !tbaa !10
  %4 = load i64, ptr %3, align 4
  %5 = lshr i64 %4, 32
  %6 = and i64 %5, 536870911
  %7 = trunc i64 %6 to i32
  ret i32 %7
}

; Function Attrs: inlinehint nounwind uwtable
define internal i32 @Gia_ObjIsCi(ptr noundef %0) #2 {
  %2 = alloca ptr, align 8
  store ptr %0, ptr %2, align 8, !tbaa !10
  %3 = load ptr, ptr %2, align 8, !tbaa !10
  %4 = load i64, ptr %3, align 4
  %5 = lshr i64 %4, 31
  %6 = and i64 %5, 1
  %7 = trunc i64 %6 to i32
  %8 = icmp ne i32 %7, 0
  br i1 %8, label %9, label %15

9:                                                ; preds = %1
  %10 = load ptr, ptr %2, align 8, !tbaa !10
  %11 = load i64, ptr %10, align 4
  %12 = and i64 %11, 536870911
  %13 = trunc i64 %12 to i32
  %14 = icmp eq i32 %13, 536870911
  br label %15

15:                                               ; preds = %9, %1
  %16 = phi i1 [ false, %1 ], [ %14, %9 ]
  %17 = zext i1 %16 to i32
  ret i32 %17
}

; Function Attrs: inlinehint nounwind uwtable
define internal i32 @Gia_ObjIsConst0(ptr noundef %0) #2 {
  %2 = alloca ptr, align 8
  store ptr %0, ptr %2, align 8, !tbaa !10
  %3 = load ptr, ptr %2, align 8, !tbaa !10
  %4 = load i64, ptr %3, align 4
  %5 = and i64 %4, 536870911
  %6 = trunc i64 %5 to i32
  %7 = icmp eq i32 %6, 536870911
  br i1 %7, label %8, label %15

8:                                                ; preds = %1
  %9 = load ptr, ptr %2, align 8, !tbaa !10
  %10 = load i64, ptr %9, align 4
  %11 = lshr i64 %10, 32
  %12 = and i64 %11, 536870911
  %13 = trunc i64 %12 to i32
  %14 = icmp eq i32 %13, 536870911
  br label %15

15:                                               ; preds = %8, %1
  %16 = phi i1 [ false, %1 ], [ %14, %8 ]
  %17 = zext i1 %16 to i32
  ret i32 %17
}

; Function Attrs: inlinehint nounwind uwtable
define internal ptr @Gia_ManObj(ptr noundef %0, i32 noundef %1) #2 {
  %3 = alloca ptr, align 8
  %4 = alloca i32, align 4
  store ptr %0, ptr %3, align 8, !tbaa !3
  store i32 %1, ptr %4, align 4, !tbaa !8
  %5 = load ptr, ptr %3, align 8, !tbaa !3
  %6 = getelementptr inbounds nuw %struct.Gia_Man_t_, ptr %5, i32 0, i32 6
  %7 = load ptr, ptr %6, align 8, !tbaa !14
  %8 = load i32, ptr %4, align 4, !tbaa !8
  %9 = sext i32 %8 to i64
  %10 = getelementptr inbounds %struct.Gia_Obj_t_, ptr %7, i64 %9
  ret ptr %10
}

; Function Attrs: nounwind uwtable
define i64 @Gia_LutComputeTruth6Map_rec(ptr noundef %0, i32 noundef %1, ptr noundef %2) #0 {
  %4 = alloca i64, align 8
  %5 = alloca ptr, align 8
  %6 = alloca i32, align 4
  %7 = alloca ptr, align 8
  %8 = alloca i64, align 8
  %9 = alloca i64, align 8
  %10 = alloca i64, align 8
  %11 = alloca ptr, align 8
  %12 = alloca i32, align 4
  store ptr %0, ptr %5, align 8, !tbaa !3
  store i32 %1, ptr %6, align 4, !tbaa !8
  store ptr %2, ptr %7, align 8, !tbaa !32
  call void @llvm.lifetime.start.p0(i64 8, ptr %8) #13
  call void @llvm.lifetime.start.p0(i64 8, ptr %9) #13
  call void @llvm.lifetime.start.p0(i64 8, ptr %10) #13
  call void @llvm.lifetime.start.p0(i64 8, ptr %11) #13
  %13 = load ptr, ptr %5, align 8, !tbaa !3
  %14 = load i32, ptr %6, align 4, !tbaa !8
  %15 = call ptr @Gia_ManObj(ptr noundef %13, i32 noundef %14)
  store ptr %15, ptr %11, align 8, !tbaa !10
  %16 = load ptr, ptr %11, align 8, !tbaa !10
  %17 = call i32 @Gia_ObjIsConst0(ptr noundef %16)
  %18 = icmp ne i32 %17, 0
  br i1 %18, label %19, label %20

19:                                               ; preds = %3
  store i64 0, ptr %4, align 8
  store i32 1, ptr %12, align 4
  br label %79

20:                                               ; preds = %3
  %21 = load ptr, ptr %11, align 8, !tbaa !10
  %22 = call i32 @Gia_ObjIsCi(ptr noundef %21)
  %23 = icmp ne i32 %22, 0
  br i1 %23, label %24, label %32

24:                                               ; preds = %20
  %25 = load ptr, ptr %7, align 8, !tbaa !32
  %26 = load ptr, ptr %11, align 8, !tbaa !10
  %27 = call i32 @Gia_ObjCioId(ptr noundef %26)
  %28 = call i32 @Vec_IntEntry(ptr noundef %25, i32 noundef %27)
  %29 = sext i32 %28 to i64
  %30 = getelementptr inbounds [6 x i64], ptr @s_Truths6, i64 0, i64 %29
  %31 = load i64, ptr %30, align 8, !tbaa !12
  store i64 %31, ptr %4, align 8
  store i32 1, ptr %12, align 4
  br label %79

32:                                               ; preds = %20
  %33 = load ptr, ptr %5, align 8, !tbaa !3
  %34 = load ptr, ptr %11, align 8, !tbaa !10
  %35 = load i32, ptr %6, align 4, !tbaa !8
  %36 = call i32 @Gia_ObjFaninId0(ptr noundef %34, i32 noundef %35)
  %37 = load ptr, ptr %7, align 8, !tbaa !32
  %38 = call i64 @Gia_LutComputeTruth6Map_rec(ptr noundef %33, i32 noundef %36, ptr noundef %37)
  store i64 %38, ptr %8, align 8, !tbaa !12
  %39 = load ptr, ptr %5, align 8, !tbaa !3
  %40 = load ptr, ptr %11, align 8, !tbaa !10
  %41 = load i32, ptr %6, align 4, !tbaa !8
  %42 = call i32 @Gia_ObjFaninId1(ptr noundef %40, i32 noundef %41)
  %43 = load ptr, ptr %7, align 8, !tbaa !32
  %44 = call i64 @Gia_LutComputeTruth6Map_rec(ptr noundef %39, i32 noundef %42, ptr noundef %43)
  store i64 %44, ptr %9, align 8, !tbaa !12
  %45 = load ptr, ptr %11, align 8, !tbaa !10
  %46 = call i32 @Gia_ObjFaninC0(ptr noundef %45)
  %47 = icmp ne i32 %46, 0
  br i1 %47, label %48, label %51

48:                                               ; preds = %32
  %49 = load i64, ptr %8, align 8, !tbaa !12
  %50 = xor i64 %49, -1
  br label %53

51:                                               ; preds = %32
  %52 = load i64, ptr %8, align 8, !tbaa !12
  br label %53

53:                                               ; preds = %51, %48
  %54 = phi i64 [ %50, %48 ], [ %52, %51 ]
  store i64 %54, ptr %8, align 8, !tbaa !12
  %55 = load ptr, ptr %11, align 8, !tbaa !10
  %56 = call i32 @Gia_ObjFaninC1(ptr noundef %55)
  %57 = icmp ne i32 %56, 0
  br i1 %57, label %58, label %61

58:                                               ; preds = %53
  %59 = load i64, ptr %9, align 8, !tbaa !12
  %60 = xor i64 %59, -1
  br label %63

61:                                               ; preds = %53
  %62 = load i64, ptr %9, align 8, !tbaa !12
  br label %63

63:                                               ; preds = %61, %58
  %64 = phi i64 [ %60, %58 ], [ %62, %61 ]
  store i64 %64, ptr %9, align 8, !tbaa !12
  %65 = load ptr, ptr %11, align 8, !tbaa !10
  %66 = call i32 @Gia_ObjIsXor(ptr noundef %65)
  %67 = icmp ne i32 %66, 0
  br i1 %67, label %68, label %72

68:                                               ; preds = %63
  %69 = load i64, ptr %8, align 8, !tbaa !12
  %70 = load i64, ptr %9, align 8, !tbaa !12
  %71 = xor i64 %69, %70
  br label %76

72:                                               ; preds = %63
  %73 = load i64, ptr %8, align 8, !tbaa !12
  %74 = load i64, ptr %9, align 8, !tbaa !12
  %75 = and i64 %73, %74
  br label %76

76:                                               ; preds = %72, %68
  %77 = phi i64 [ %71, %68 ], [ %75, %72 ]
  store i64 %77, ptr %10, align 8, !tbaa !12
  %78 = load i64, ptr %10, align 8, !tbaa !12
  store i64 %78, ptr %4, align 8
  store i32 1, ptr %12, align 4
  br label %79

79:                                               ; preds = %76, %24, %19
  call void @llvm.lifetime.end.p0(i64 8, ptr %11) #13
  call void @llvm.lifetime.end.p0(i64 8, ptr %10) #13
  call void @llvm.lifetime.end.p0(i64 8, ptr %9) #13
  call void @llvm.lifetime.end.p0(i64 8, ptr %8) #13
  %80 = load i64, ptr %4, align 8
  ret i64 %80
}