; Function Attrs: nofree nosync nounwind memory(read, inaccessiblemem: none) uwtable
define i64 @Gia_LutComputeTruth6Map_rec(ptr noundef %0, i32 noundef %1, ptr noundef %2) local_unnamed_addr #0 {
  %4 = getelementptr i8, ptr %0, i64 32
  %.val = load ptr, ptr %4, align 8, !tbaa !3
  %5 = sext i32 %1 to i64
  %6 = getelementptr inbounds %struct.Gia_Obj_t_, ptr %.val, i64 %5
  %.val31 = load i64, ptr %6, align 4
  %7 = and i64 %.val31, 2305843005455597567
  %narrow.i.not = icmp eq i64 %7, 2305843005455597567
  br i1 %narrow.i.not, label %43, label %8

8:                                                ; preds = %3
  %9 = and i64 %.val31, 2684354559
  %narrow.i40.not = icmp eq i64 %9, 2684354559
  br i1 %narrow.i40.not, label %10, label %19

10:                                               ; preds = %8
  %11 = lshr i64 %.val31, 32
  %12 = and i64 %11, 536870911
  %13 = getelementptr i8, ptr %2, i64 8
  %.val39 = load ptr, ptr %13, align 8, !tbaa !30
  %14 = getelementptr inbounds nuw i32, ptr %.val39, i64 %12
  %15 = load i32, ptr %14, align 4, !tbaa !31
  %16 = sext i32 %15 to i64
  %17 = getelementptr inbounds [6 x i64], ptr @s_Truth6, i64 0, i64 %16
  %18 = load i64, ptr %17, align 8, !tbaa !28
  br label %43

19:                                               ; preds = %8
  %20 = trunc i64 %.val31 to i32
  %21 = and i32 %20, 536870911
  %22 = sub nsw i32 %1, %21
  %23 = tail call i64 @Gia_LutComputeTruth6Map_rec(ptr noundef nonnull %0, i32 noundef %22, ptr noundef %2)
  %24 = lshr i64 %.val31, 32
  %25 = trunc nuw i64 %24 to i32
  %26 = and i32 %25, 536870911
  %27 = sub nsw i32 %1, %26
  %28 = tail call i64 @Gia_LutComputeTruth6Map_rec(ptr noundef nonnull %0, i32 noundef %27, ptr noundef %2)
  %29 = shl i32 %20, 2
  %30 = ashr i32 %29, 31
  %31 = sext i32 %30 to i64
  %32 = xor i64 %23, %31
  %33 = shl i64 %.val31, 2
  %34 = ashr i64 %33, 63
  %35 = xor i64 %28, %34
  %36 = and i64 %.val31, 2147483648
  %.not.i.i = icmp ne i64 %36, 0
  %37 = and i64 %.val31, 536870911
  %38 = icmp eq i64 %37, 536870911
  %narrow.i.not.i = or i1 %.not.i.i, %38
  br i1 %narrow.i.not.i, label %Gia_ObjIsXor.exit.thread, label %Gia_ObjIsXor.exit

Gia_ObjIsXor.exit.thread:                         ; preds = %19
  %39 = and i64 %35, %32
  br label %43

Gia_ObjIsXor.exit:                                ; preds = %19
  %40 = icmp samesign uge i32 %21, %26
  %41 = xor i64 %35, %32
  %42 = and i64 %35, %32
  %cond.fr = freeze i1 %40
  %spec.select = select i1 %cond.fr, i64 %42, i64 %41
  br label %43

43:                                               ; preds = %Gia_ObjIsXor.exit, %Gia_ObjIsXor.exit.thread, %3, %10
  %.0 = phi i64 [ %18, %10 ], [ 0, %3 ], [ %39, %Gia_ObjIsXor.exit.thread ], [ %spec.select, %Gia_ObjIsXor.exit ]
  ret i64 %.0
}